; Function Attrs: mustprogress uwtable
define void @_ZN8facebook5velox16VectorSerializer6appendERKSt10shared_ptrINS0_9RowVectorEE(ptr noundef nonnull align 8 dereferenceable(8) %this, ptr noundef nonnull align 8 dereferenceable(16) %vector) local_unnamed_addr #0 align 2 personality ptr @__gxx_personality_v0 {
entry:
  %allRows = alloca %"struct.facebook::velox::IndexRange", align 4
  %scratch = alloca %"class.facebook::velox::Scratch", align 8
  %ref.tmp = alloca %"class.folly::Range", align 8
  store i32 0, ptr %allRows, align 4
  %size = getelementptr inbounds i8, ptr %allRows, i64 4
  %0 = load ptr, ptr %vector, align 8
  %length_.i = getelementptr inbounds i8, ptr %0, i64 56
  %1 = load i32, ptr %length_.i, align 8
  store i32 %1, ptr %size, align 4
  call void @llvm.memset.p0.i64(ptr noundef nonnull align 8 dereferenceable(24) %scratch, i8 0, i64 24, i1 false)
  store ptr %allRows, ptr %ref.tmp, align 8
  %e_.i = getelementptr inbounds i8, ptr %ref.tmp, i64 8
  %add.ptr.i = getelementptr inbounds i8, ptr %allRows, i64 8
  store ptr %add.ptr.i, ptr %e_.i, align 8
  %vtable = load ptr, ptr %this, align 8
  %vfn = getelementptr inbounds i8, ptr %vtable, i64 16
  %2 = load ptr, ptr %vfn, align 8
  invoke void %2(ptr noundef nonnull align 8 dereferenceable(8) %this, ptr noundef nonnull align 8 dereferenceable(16) %vector, ptr noundef nonnull align 8 dereferenceable(16) %ref.tmp, ptr noundef nonnull align 8 dereferenceable(24) %scratch)
          to label %invoke.cont3 unwind label %lpad

invoke.cont3:                                     ; preds = %entry
  %fill_.i = getelementptr inbounds i8, ptr %scratch, i64 8
  %3 = load i32, ptr %fill_.i, align 8
  %capacity_.i = getelementptr inbounds i8, ptr %scratch, i64 12
  %4 = load i32, ptr %capacity_.i, align 4
  %cmp.not.i = icmp sgt i32 %3, %4
  br i1 %cmp.not.i, label %if.then.i, label %for.cond.preheader.i

for.cond.preheader.i:                             ; preds = %invoke.cont3
  %cmp313.i = icmp sgt i32 %3, 0
  br i1 %cmp313.i, label %for.body.i, label %for.end.i

if.then.i:                                        ; preds = %invoke.cont3
  call void @llvm.trap()
  unreachable

for.body.i:                                       ; preds = %for.cond.preheader.i, %_ZSt10destroy_atIN8facebook5velox10raw_vectorIcEEEvPT_.exit.i
  %.pr16.i = phi i32 [ %.pr.i, %_ZSt10destroy_atIN8facebook5velox10raw_vectorIcEEEvPT_.exit.i ], [ %3, %for.cond.preheader.i ]
  %indvars.iv.i = phi i64 [ %indvars.iv.next.i, %_ZSt10destroy_atIN8facebook5velox10raw_vectorIcEEEvPT_.exit.i ], [ 0, %for.cond.preheader.i ]
  %5 = load ptr, ptr %scratch, align 8
  %arrayidx.i = getelementptr inbounds %"class.facebook::velox::raw_vector", ptr %5, i64 %indvars.iv.i
  %6 = load ptr, ptr %arrayidx.i, align 8
  %tobool.not.i.i.i = icmp eq ptr %6, null
  br i1 %tobool.not.i.i.i, label %_ZSt10destroy_atIN8facebook5velox10raw_vectorIcEEEvPT_.exit.i, label %_ZN8facebook5velox10raw_vectorIcE8freeDataEPc.exit.i.i.i

_ZN8facebook5velox10raw_vectorIcE8freeDataEPc.exit.i.i.i: ; preds = %for.body.i
  %7 = ptrtoint ptr %6 to i64
  %add.i.i.i.i.i = add i64 %7, -32
  %8 = inttoptr i64 %add.i.i.i.i.i to ptr
  call void @free(ptr noundef %8) #21
  %.pr.pre.i = load i32, ptr %fill_.i, align 8
  br label %_ZSt10destroy_atIN8facebook5velox10raw_vectorIcEEEvPT_.exit.i

_ZSt10destroy_atIN8facebook5velox10raw_vectorIcEEEvPT_.exit.i: ; preds = %_ZN8facebook5velox10raw_vectorIcE8freeDataEPc.exit.i.i.i, %for.body.i
  %.pr.i = phi i32 [ %.pr16.i, %for.body.i ], [ %.pr.pre.i, %_ZN8facebook5velox10raw_vectorIcE8freeDataEPc.exit.i.i.i ]
  %indvars.iv.next.i = add nuw nsw i64 %indvars.iv.i, 1
  %9 = sext i32 %.pr.i to i64
  %cmp3.i = icmp slt i64 %indvars.iv.next.i, %9
  br i1 %cmp3.i, label %for.body.i, label %for.end.loopexit.i, !llvm.loop !4

for.end.loopexit.i:                               ; preds = %_ZSt10destroy_atIN8facebook5velox10raw_vectorIcEEEvPT_.exit.i
  %.pre.i = load i32, ptr %capacity_.i, align 4
  br label %for.end.i

for.end.i:                                        ; preds = %for.end.loopexit.i, %for.cond.preheader.i
  %10 = phi i32 [ %4, %for.cond.preheader.i ], [ %.pre.i, %for.end.loopexit.i ]
  %.lcssa.i = phi i32 [ %3, %for.cond.preheader.i ], [ %.pr.i, %for.end.loopexit.i ]
  %cmp5.i = icmp slt i32 %10, 0
  %.pre = load ptr, ptr %scratch, align 8
  br i1 %cmp5.i, label %if.then6.i, label %_ZN8facebook5velox7ScratchD2Ev.exit

if.then6.i:                                       ; preds = %for.end.i
  %call.i = call noalias ptr @malloc(i64 noundef 0) #22
  %cmp8.i = icmp sgt i32 %.lcssa.i, 0
  br i1 %cmp8.i, label %if.then9.i, label %if.end14.i

if.then9.i:                                       ; preds = %if.then6.i
  %conv12.i = zext nneg i32 %.lcssa.i to i64
  %mul13.i = shl nuw nsw i64 %conv12.i, 4
  call void @llvm.memcpy.p0.p0.i64(ptr align 8 %call.i, ptr align 8 %.pre, i64 %mul13.i, i1 false)
  br label %if.end14.i

if.end14.i:                                       ; preds = %if.then9.i, %if.then6.i
  %idx.ext.i = sext i32 %.lcssa.i to i64
  %add.ptr.i2 = getelementptr inbounds %"class.facebook::velox::raw_vector", ptr %call.i, i64 %idx.ext.i
  %sub.i = sub nsw i32 0, %.lcssa.i
  %conv17.i = sext i32 %sub.i to i64
  %mul18.i = shl nsw i64 %conv17.i, 4
  call void @llvm.memset.p0.i64(ptr align 8 %add.ptr.i2, i8 0, i64 %mul18.i, i1 false)
  call void @free(ptr noundef %.pre) #21
  store ptr %call.i, ptr %scratch, align 8
  store i32 0, ptr %capacity_.i, align 4
  %.pre19.i = load i32, ptr %fill_.i, align 8
  br label %_ZN8facebook5velox7ScratchD2Ev.exit

_ZN8facebook5velox7ScratchD2Ev.exit:              ; preds = %if.end14.i, %for.end.i
  %11 = phi ptr [ %call.i, %if.end14.i ], [ %.pre, %for.end.i ]
  %12 = phi i32 [ %.pre19.i, %if.end14.i ], [ %.lcssa.i, %for.end.i ]
  %.sroa.speculated.i = call i32 @llvm.smin.i32(i32 %12, i32 0)
  store i32 %.sroa.speculated.i, ptr %fill_.i, align 8
  call void @free(ptr noundef %11) #21
  ret void

lpad:                                             ; preds = %entry
  %13 = landingpad { ptr, i32 }
          cleanup
  call void @_ZN8facebook5velox7ScratchD2Ev(ptr noundef nonnull align 8 dereferenceable(24) %scratch) #21
  resume { ptr, i32 } %13
}